; Function Attrs: mustprogress uwtable
define hidden void @_ZN2lp10hnf_cutter25try_add_term_to_A_for_hnfERKNS_2tvE(ptr noundef nonnull align 8 dereferenceable(208) %this, ptr noundef nonnull align 4 dereferenceable(4) %i) local_unnamed_addr #3 align 2 personality ptr @__gxx_personality_v0 {
invoke.cont:
  %rs = alloca %class.rational, align 8
  %dep = alloca ptr, align 8
  %upper_bound = alloca i8, align 1
  store i32 0, ptr %rs, align 8
  %m_kind.i.i.i = getelementptr inbounds i8, ptr %rs, i64 4
  store i8 0, ptr %m_kind.i.i.i, align 4
  %m_ptr.i.i.i = getelementptr inbounds i8, ptr %rs, i64 8
  store ptr null, ptr %m_ptr.i.i.i, align 8
  %m_den.i.i = getelementptr inbounds i8, ptr %rs, i64 16
  store i32 1, ptr %m_den.i.i, align 8
  %m_kind.i1.i.i = getelementptr inbounds i8, ptr %rs, i64 20
  store i8 0, ptr %m_kind.i1.i.i, align 4
  %m_ptr.i4.i.i = getelementptr inbounds i8, ptr %rs, i64 24
  store ptr null, ptr %m_ptr.i4.i.i, align 8
  %lra = getelementptr inbounds i8, ptr %this, i64 8
  %0 = load ptr, ptr %lra, align 8
  %m_terms.i = getelementptr inbounds i8, ptr %0, i64 1504
  %1 = load i32, ptr %i, align 4
  %and.i.i.i = and i32 %1, 2147483647
  %2 = load ptr, ptr %m_terms.i, align 8
  %idxprom.i.i = zext nneg i32 %and.i.i.i to i64
  %arrayidx.i.i = getelementptr inbounds ptr, ptr %2, i64 %idxprom.i.i
  %3 = load ptr, ptr %arrayidx.i.i, align 8
  %call3 = invoke noundef zeroext i1 @_ZNK2lp10hnf_cutter7is_fullEv(ptr noundef nonnull align 8 dereferenceable(208) %this)
          to label %invoke.cont2 unwind label %lpad

invoke.cont2:                                     ; preds = %invoke.cont
  br i1 %call3, label %if.end, label %land.lhs.true

land.lhs.true:                                    ; preds = %invoke.cont2
  %4 = load ptr, ptr %lra, align 8
  %call6 = invoke noundef zeroext i1 @_ZNK2lp10lar_solver49get_equality_and_right_side_for_term_on_current_xERKNS_2tvER8rationalRPN18dependency_managerIN25scoped_dependency_managerIjE6configEE10dependencyERb(ptr noundef nonnull align 8 dereferenceable(1888) %4, ptr noundef nonnull align 4 dereferenceable(4) %i, ptr noundef nonnull align 8 dereferenceable(32) %rs, ptr noundef nonnull align 8 dereferenceable(8) %dep, ptr noundef nonnull align 1 dereferenceable(1) %upper_bound)
          to label %invoke.cont5 unwind label %lpad

invoke.cont5:                                     ; preds = %land.lhs.true
  br i1 %call6, label %if.then, label %if.end

if.then:                                          ; preds = %invoke.cont5
  %5 = load ptr, ptr %dep, align 8
  %6 = load i8, ptr %upper_bound, align 1
  %7 = and i8 %6, 1
  %tobool = icmp ne i8 %7, 0
  invoke void @_ZN2lp10hnf_cutter8add_termEPKNS_8lar_termERK8rationalPN18dependency_managerIN25scoped_dependency_managerIjE6configEE10dependencyEb(ptr noundef nonnull align 8 dereferenceable(208) %this, ptr noundef nonnull %3, ptr noundef nonnull align 8 dereferenceable(32) %rs, ptr noundef %5, i1 noundef zeroext %tobool)
          to label %if.end unwind label %lpad

lpad:                                             ; preds = %if.then, %land.lhs.true, %invoke.cont
  %8 = landingpad { ptr, i32 }
          cleanup
  call void @_ZN8rationalD2Ev(ptr noundef nonnull align 8 dereferenceable(32) %rs) #20
  resume { ptr, i32 } %8

if.end:                                           ; preds = %if.then, %invoke.cont5, %invoke.cont2
  %9 = load ptr, ptr @_ZN8rational13g_mpq_managerE, align 8
  invoke void @_ZN11mpz_managerILb1EE3delEPS0_R3mpz(ptr noundef %9, ptr noundef nonnull align 8 dereferenceable(16) %rs)
          to label %.noexc.i unwind label %terminate.lpad.i

.noexc.i:                                         ; preds = %if.end
  invoke void @_ZN11mpz_managerILb1EE3delEPS0_R3mpz(ptr noundef %9, ptr noundef nonnull align 8 dereferenceable(16) %m_den.i.i)
          to label %_ZN8rationalD2Ev.exit unwind label %terminate.lpad.i

terminate.lpad.i:                                 ; preds = %.noexc.i, %if.end
  %10 = landingpad { ptr, i32 }
          catch ptr null
  %11 = extractvalue { ptr, i32 } %10, 0
  call void @__clang_call_terminate(ptr %11) #21
  unreachable

_ZN8rationalD2Ev.exit:                            ; preds = %.noexc.i
  ret void
}